; Function Attrs: mustprogress nofree norecurse nosync nounwind memory(argmem: readwrite) uwtable
define internal void @_ZN2cv12cpu_baselineL14cvtScale64f16fEPKhmS2_mPhmNS_5Size_IiEEPv(ptr noundef readonly captures(none) %0, i64 noundef %1, ptr readnone captures(none) %2, i64 %3, ptr noundef writeonly captures(none) %4, i64 noundef %5, i64 %6, ptr noundef readonly captures(none) %7) #2 {
  %9 = load double, ptr %7, align 8, !tbaa !7
  %10 = getelementptr inbounds nuw i8, ptr %7, i64 8
  %11 = load double, ptr %10, align 8, !tbaa !7
  %.sroa.2.0.extract.shift.i = lshr i64 %6, 32
  %.sroa.2.0.extract.trunc.i = trunc nuw i64 %.sroa.2.0.extract.shift.i to i32
  %12 = lshr i64 %1, 3
  %13 = lshr i64 %5, 1
  %14 = icmp sgt i32 %.sroa.2.0.extract.trunc.i, 0
  %.sroa.015.0.extract.trunc.i = trunc i64 %6 to i32
  %15 = icmp sgt i32 %.sroa.015.0.extract.trunc.i, 0
  %or.cond.i = and i1 %15, %14
  br i1 %or.cond.i, label %.preheader.us.preheader.i, label %_ZN2cv12cpu_baseline7cvt_64fIdNS_6hfloatEEEvPKT_mPT0_mNS_5Size_IiEEdd.exit

.preheader.us.preheader.i:                        ; preds = %8
  %wide.trip.count.i = and i64 %6, 2147483647
  br label %.preheader.us.i

.preheader.us.i:                                  ; preds = %._crit_edge.us.i, %.preheader.us.preheader.i
  %.022.us.i = phi ptr [ %48, %._crit_edge.us.i ], [ %0, %.preheader.us.preheader.i ]
  %.01721.us.i = phi i32 [ %47, %._crit_edge.us.i ], [ 0, %.preheader.us.preheader.i ]
  %.01820.us.i = phi ptr [ %49, %._crit_edge.us.i ], [ %4, %.preheader.us.preheader.i ]
  br label %16

16:                                               ; preds = %_ZN2cvL13saturate_castINS_6hfloatEEET_d.exit.us.i, %.preheader.us.i
  %indvars.iv.i = phi i64 [ 0, %.preheader.us.i ], [ %indvars.iv.next.i, %_ZN2cvL13saturate_castINS_6hfloatEEET_d.exit.us.i ]
  %17 = getelementptr inbounds nuw double, ptr %.022.us.i, i64 %indvars.iv.i
  %18 = load double, ptr %17, align 8, !tbaa !7
  %19 = tail call double @llvm.fmuladd.f64(double %18, double %9, double %11)
  %20 = fptrunc double %19 to float
  %21 = tail call float @llvm.fabs.f32(float %20)
  %22 = bitcast float %21 to i32
  %23 = icmp samesign ugt i32 %22, 1199570943
  br i1 %23, label %37, label %24

24:                                               ; preds = %16
  %25 = icmp samesign ult i32 %22, 947912704
  br i1 %25, label %33, label %26

26:                                               ; preds = %24
  %27 = add nuw nsw i32 %22, 134221823
  %28 = lshr i32 %22, 13
  %29 = and i32 %28, 1
  %30 = add nuw nsw i32 %27, %29
  %31 = lshr i32 %30, 13
  %32 = trunc i32 %31 to i16
  br label %_ZN2cvL13saturate_castINS_6hfloatEEET_d.exit.us.i

33:                                               ; preds = %24
  %34 = fadd float %21, 5.000000e-01
  %35 = bitcast float %34 to i32
  %36 = trunc i32 %35 to i16
  br label %_ZN2cvL13saturate_castINS_6hfloatEEET_d.exit.us.i

37:                                               ; preds = %16
  %38 = icmp samesign ugt i32 %22, 2139095040
  %39 = select i1 %38, i16 32256, i16 31744
  br label %_ZN2cvL13saturate_castINS_6hfloatEEET_d.exit.us.i

_ZN2cvL13saturate_castINS_6hfloatEEET_d.exit.us.i: ; preds = %37, %33, %26
  %40 = phi i16 [ %36, %33 ], [ %32, %26 ], [ %39, %37 ]
  %41 = bitcast float %20 to i32
  %42 = lshr i32 %41, 16
  %43 = trunc nuw i32 %42 to i16
  %44 = and i16 %43, -32768
  %45 = or i16 %40, %44
  %46 = getelementptr inbounds nuw %"class.cv::hfloat", ptr %.01820.us.i, i64 %indvars.iv.i
  store i16 %45, ptr %46, align 2, !tbaa !15
  %indvars.iv.next.i = add nuw nsw i64 %indvars.iv.i, 1
  %exitcond.not.i = icmp eq i64 %indvars.iv.next.i, %wide.trip.count.i
  br i1 %exitcond.not.i, label %._crit_edge.us.i, label %16, !llvm.loop !157

._crit_edge.us.i:                                 ; preds = %_ZN2cvL13saturate_castINS_6hfloatEEET_d.exit.us.i
  %47 = add nuw nsw i32 %.01721.us.i, 1
  %48 = getelementptr inbounds nuw double, ptr %.022.us.i, i64 %12
  %49 = getelementptr inbounds nuw %"class.cv::hfloat", ptr %.01820.us.i, i64 %13
  %exitcond26.not.i = icmp eq i32 %47, %.sroa.2.0.extract.trunc.i
  br i1 %exitcond26.not.i, label %_ZN2cv12cpu_baseline7cvt_64fIdNS_6hfloatEEEvPKT_mPT0_mNS_5Size_IiEEdd.exit, label %.preheader.us.i, !llvm.loop !158

_ZN2cv12cpu_baseline7cvt_64fIdNS_6hfloatEEEvPKT_mPT0_mNS_5Size_IiEEdd.exit: ; preds = %._crit_edge.us.i, %8
  ret void
}